; ModuleID = '40/578.c'
source_filename = "40/578.c"
target datalayout = "e-m:e-p270:32:32-p271:32:32-p272:64:64-i64:64-f80:128-n8:16:32:64-S128"
target triple = "x86_64-pc-linux-gnu"

@.str = private unnamed_addr constant [16 x i8] c"%lf%lf%lf%lf%lf\00", align 1
@.str.1 = private unnamed_addr constant [14 x i8] c"Invalid input\00", align 1
@.str.2 = private unnamed_addr constant [6 x i8] c"%.4lf\00", align 1

; Function Attrs: noinline nounwind uwtable
define dso_local i32 @main() #0 {
  %1 = alloca i32, align 4
  %2 = alloca double, align 8
  %3 = alloca double, align 8
  %4 = alloca double, align 8
  %5 = alloca double, align 8
  %6 = alloca double, align 8
  %7 = alloca double, align 8
  %8 = alloca double, align 8
  %9 = alloca double, align 8
  store i32 0, i32* %1, align 4
  %10 = call i32 (i8*, ...) @__isoc99_scanf(i8* getelementptr inbounds ([16 x i8], [16 x i8]* @.str, i64 0, i64 0), double* %2, double* %3, double* %4, double* %5, double* %7)
  %11 = load double, double* %2, align 8
  %12 = load double, double* %3, align 8
  %13 = fadd double %11, %12
  %14 = load double, double* %4, align 8
  %15 = fadd double %13, %14
  %16 = load double, double* %5, align 8
  %17 = fadd double %15, %16
  %18 = fdiv double %17, 2.000000e+00
  store double %18, double* %6, align 8
  %19 = load double, double* %7, align 8
  %20 = fmul double 3.140000e+00, %19
  %21 = fdiv double %20, 3.600000e+02
  store double %21, double* %8, align 8
  %22 = load double, double* %6, align 8
  %23 = load double, double* %2, align 8
  %24 = fsub double %22, %23
  %25 = load double, double* %6, align 8
  %26 = load double, double* %3, align 8
  %27 = fsub double %25, %26
  %28 = fmul double %24, %27
  %29 = load double, double* %6, align 8
  %30 = load double, double* %4, align 8
  %31 = fsub double %29, %30
  %32 = fmul double %28, %31
  %33 = load double, double* %6, align 8
  %34 = load double, double* %5, align 8
  %35 = fsub double %33, %34
  %36 = fmul double %32, %35
  %37 = load double, double* %2, align 8
  %38 = load double, double* %3, align 8
  %39 = fmul double %37, %38
  %40 = load double, double* %4, align 8
  %41 = fmul double %39, %40
  %42 = load double, double* %5, align 8
  %43 = fmul double %41, %42
  %44 = load double, double* %8, align 8
  %45 = call double @cos(double %44) #3
  %46 = call double @pow(double %45, double 2.000000e+00) #3
  %47 = fmul double %43, %46
  %48 = fsub double %36, %47
  %49 = call double @sqrt(double %48) #3
  store double %49, double* %9, align 8
  %50 = load double, double* %6, align 8
  %51 = load double, double* %2, align 8
  %52 = fsub double %50, %51
  %53 = load double, double* %6, align 8
  %54 = load double, double* %3, align 8
  %55 = fsub double %53, %54
  %56 = fmul double %52, %55
  %57 = load double, double* %6, align 8
  %58 = load double, double* %4, align 8
  %59 = fsub double %57, %58
  %60 = fmul double %56, %59
  %61 = load double, double* %6, align 8
  %62 = load double, double* %5, align 8
  %63 = fsub double %61, %62
  %64 = fmul double %60, %63
  %65 = load double, double* %2, align 8
  %66 = load double, double* %3, align 8
  %67 = fmul double %65, %66
  %68 = load double, double* %4, align 8
  %69 = fmul double %67, %68
  %70 = load double, double* %5, align 8
  %71 = fmul double %69, %70
  %72 = load double, double* %8, align 8
  %73 = call double @cos(double %72) #3
  %74 = call double @pow(double %73, double 2.000000e+00) #3
  %75 = fmul double %71, %74
  %76 = fsub double %64, %75
  %77 = fcmp olt double %76, 0.000000e+00
  br i1 %77, label %78, label %80

78:                                               ; preds = %0
  %79 = call i32 (i8*, ...) @printf(i8* getelementptr inbounds ([14 x i8], [14 x i8]* @.str.1, i64 0, i64 0))
  br label %83

80:                                               ; preds = %0
  %81 = load double, double* %9, align 8
  %82 = call i32 (i8*, ...) @printf(i8* getelementptr inbounds ([6 x i8], [6 x i8]* @.str.2, i64 0, i64 0), double %81)
  br label %83

83:                                               ; preds = %80, %78
  ret i32 0
}

declare dso_local i32 @__isoc99_scanf(i8*, ...) #1

; Function Attrs: nounwind
declare dso_local double @sqrt(double) #2

; Function Attrs: nounwind
declare dso_local double @pow(double, double) #2

; Function Attrs: nounwind
declare dso_local double @cos(double) #2

declare dso_local i32 @printf(i8*, ...) #1


!llvm.module.flags = !{!0}
!llvm.ident = !{!1}

!0 = !{i32 1, !"wchar_size", i32 4}
!1 = !{!"clang version 10.0.0-4ubuntu1 "}
