; ModuleID = 'source-C-CXX/39/578.c'
source_filename = "source-C-CXX/39/578.c"
target datalayout = "e-m:e-p270:32:32-p271:32:32-p272:64:64-i64:64-f80:128-n8:16:32:64-S128"
target triple = "x86_64-pc-linux-gnu"

@.str = private unnamed_addr constant [16 x i8] c"%lf%lf%lf%lf%lf\00", align 1
@.str.1 = private unnamed_addr constant [14 x i8] c"Invalid input\00", align 1
@.str.2 = private unnamed_addr constant [6 x i8] c"%.4lf\00", align 1

; Function Attrs: nofree nounwind sspstrong uwtable
define dso_local i32 @main() local_unnamed_addr #0 {
  %1 = alloca double, align 8
  %2 = alloca double, align 8
  %3 = alloca double, align 8
  %4 = alloca double, align 8
  %5 = alloca double, align 8
  %6 = bitcast double* %1 to i8*
  call void @llvm.lifetime.start.p0i8(i64 8, i8* nonnull %6) #4
  %7 = bitcast double* %2 to i8*
  call void @llvm.lifetime.start.p0i8(i64 8, i8* nonnull %7) #4
  %8 = bitcast double* %3 to i8*
  call void @llvm.lifetime.start.p0i8(i64 8, i8* nonnull %8) #4
  %9 = bitcast double* %4 to i8*
  call void @llvm.lifetime.start.p0i8(i64 8, i8* nonnull %9) #4
  %10 = bitcast double* %5 to i8*
  call void @llvm.lifetime.start.p0i8(i64 8, i8* nonnull %10) #4
  %11 = call i32 (i8*, ...) @__isoc99_scanf(i8* getelementptr inbounds ([16 x i8], [16 x i8]* @.str, i64 0, i64 0), double* nonnull %1, double* nonnull %2, double* nonnull %3, double* nonnull %4, double* nonnull %5)
  %12 = load double, double* %1, align 8, !tbaa !5
  %13 = load double, double* %2, align 8, !tbaa !5
  %14 = fadd double %12, %13
  %15 = load double, double* %3, align 8, !tbaa !5
  %16 = fadd double %14, %15
  %17 = load double, double* %4, align 8, !tbaa !5
  %18 = fadd double %16, %17
  %19 = fmul double %18, 5.000000e-01
  %20 = load double, double* %5, align 8, !tbaa !5
  %21 = fmul double %20, 3.140000e+00
  %22 = fdiv double %21, 3.600000e+02
  %23 = fsub double %19, %12
  %24 = fsub double %19, %13
  %25 = fmul double %23, %24
  %26 = fsub double %19, %15
  %27 = fmul double %26, %25
  %28 = fsub double %19, %17
  %29 = fmul double %28, %27
  %30 = fmul double %12, %13
  %31 = fmul double %30, %15
  %32 = fmul double %31, %17
  %33 = call double @cos(double %22) #4
  %34 = fmul double %33, %33
  %35 = fmul double %32, %34
  %36 = fsub double %29, %35
  %37 = call double @sqrt(double %36) #4
  %38 = load double, double* %1, align 8, !tbaa !5
  %39 = fsub double %19, %38
  %40 = load double, double* %2, align 8, !tbaa !5
  %41 = fsub double %19, %40
  %42 = load double, double* %3, align 8, !tbaa !5
  %43 = fsub double %19, %42
  %44 = load double, double* %4, align 8, !tbaa !5
  %45 = fsub double %19, %44
  %46 = insertelement <2 x double> poison, double %39, i32 0
  %47 = insertelement <2 x double> %46, double %38, i32 1
  %48 = insertelement <2 x double> poison, double %41, i32 0
  %49 = insertelement <2 x double> %48, double %40, i32 1
  %50 = fmul <2 x double> %47, %49
  %51 = insertelement <2 x double> poison, double %43, i32 0
  %52 = insertelement <2 x double> %51, double %42, i32 1
  %53 = fmul <2 x double> %50, %52
  %54 = insertelement <2 x double> poison, double %45, i32 0
  %55 = insertelement <2 x double> %54, double %44, i32 1
  %56 = fmul <2 x double> %53, %55
  %57 = call double @cos(double %22) #4
  %58 = fmul double %57, %57
  %59 = extractelement <2 x double> %56, i32 1
  %60 = fmul double %59, %58
  %61 = extractelement <2 x double> %56, i32 0
  %62 = fsub double %61, %60
  %63 = fcmp olt double %62, 0.000000e+00
  br i1 %63, label %64, label %66

64:                                               ; preds = %0
  %65 = call i32 (i8*, ...) @printf(i8* nonnull dereferenceable(1) getelementptr inbounds ([14 x i8], [14 x i8]* @.str.1, i64 0, i64 0))
  br label %68

66:                                               ; preds = %0
  %67 = call i32 (i8*, ...) @printf(i8* nonnull dereferenceable(1) getelementptr inbounds ([6 x i8], [6 x i8]* @.str.2, i64 0, i64 0), double %37)
  br label %68

68:                                               ; preds = %66, %64
  call void @llvm.lifetime.end.p0i8(i64 8, i8* nonnull %10) #4
  call void @llvm.lifetime.end.p0i8(i64 8, i8* nonnull %9) #4
  call void @llvm.lifetime.end.p0i8(i64 8, i8* nonnull %8) #4
  call void @llvm.lifetime.end.p0i8(i64 8, i8* nonnull %7) #4
  call void @llvm.lifetime.end.p0i8(i64 8, i8* nonnull %6) #4
  ret i32 0
}

; Function Attrs: argmemonly mustprogress nofree nosync nounwind willreturn
declare void @llvm.lifetime.start.p0i8(i64 immarg, i8* nocapture) #1

; Function Attrs: nofree nounwind
declare noundef i32 @__isoc99_scanf(i8* nocapture noundef readonly, ...) local_unnamed_addr #2

; Function Attrs: mustprogress nofree nounwind willreturn
declare double @sqrt(double) local_unnamed_addr #3

; Function Attrs: mustprogress nofree nounwind willreturn
declare double @cos(double) local_unnamed_addr #3

; Function Attrs: nofree nounwind
declare noundef i32 @printf(i8* nocapture noundef readonly, ...) local_unnamed_addr #2

; Function Attrs: argmemonly mustprogress nofree nosync nounwind willreturn
declare void @llvm.lifetime.end.p0i8(i64 immarg, i8* nocapture) #1


!llvm.module.flags = !{!0, !1, !2, !3}
!llvm.ident = !{!4}

!0 = !{i32 1, !"wchar_size", i32 4}
!1 = !{i32 7, !"PIC Level", i32 2}
!2 = !{i32 7, !"PIE Level", i32 2}
!3 = !{i32 7, !"uwtable", i32 1}
!4 = !{!"clang version 13.0.0"}
!5 = !{!6, !6, i64 0}
!6 = !{!"double", !7, i64 0}
!7 = !{!"omnipotent char", !8, i64 0}
!8 = !{!"Simple C/C++ TBAA"}
